; Function Attrs: mustprogress nounwind uwtable
define hidden noundef ptr @_ZN13LIR_Assembler15double_constantEd(ptr nocapture noundef nonnull readonly align 8 dereferenceable(96) %0, double noundef %1) local_unnamed_addr #0 align 2 {
  %3 = load ptr, ptr %0, align 8
  %4 = getelementptr inbounds i8, ptr %3, i64 8
  %5 = load ptr, ptr %4, align 8
  %6 = tail call noundef ptr @_ZN17AbstractAssembler13start_a_constEii(ptr noundef nonnull align 8 dereferenceable(24) %3, i32 noundef 8, i32 noundef 8) #15
  %.not.i = icmp eq ptr %6, null
  br i1 %.not.i, label %12, label %_ZN17AbstractAssembler15double_constantEd.exit

_ZN17AbstractAssembler15double_constantEd.exit:   ; preds = %2
  %7 = load ptr, ptr %4, align 8
  %8 = getelementptr inbounds i8, ptr %7, i64 16
  %9 = load ptr, ptr %8, align 8
  store double %1, ptr %9, align 1
  %10 = load ptr, ptr %8, align 8
  %11 = getelementptr inbounds i8, ptr %10, i64 8
  store ptr %11, ptr %8, align 8
  tail call void @_ZN17AbstractAssembler11end_a_constEP11CodeSection(ptr noundef nonnull align 8 dereferenceable(24) %3, ptr noundef %5) #15
  br label %22

12:                                               ; preds = %2
  %13 = getelementptr inbounds i8, ptr %0, i64 16
  %14 = load ptr, ptr %13, align 8
  tail call void @_ZN11Compilation7bailoutEPKc(ptr noundef nonnull align 8 dereferenceable(704) %14, ptr noundef nonnull @.str) #15
  %15 = load ptr, ptr %0, align 8
  %16 = getelementptr inbounds i8, ptr %15, i64 8
  %17 = load ptr, ptr %16, align 8
  %18 = getelementptr inbounds i8, ptr %17, i64 80
  %19 = load ptr, ptr %18, align 8
  %20 = getelementptr inbounds i8, ptr %19, i64 8
  %21 = load ptr, ptr %20, align 8
  br label %22

22:                                               ; preds = %_ZN17AbstractAssembler15double_constantEd.exit, %12
  %.0 = phi ptr [ %21, %12 ], [ %6, %_ZN17AbstractAssembler15double_constantEd.exit ]
  ret ptr %.0
}